target datalayout = "e-m:e-p270:32:32-p271:32:32-p272:64:64-i64:64-i128:128-f80:128-n8:16:32:64-S128"
target triple = "x86_64-pc-linux-gnu"

%struct.AVCodecContext = type { ptr, i32, i32, ptr, i32, i32, ptr, ptr, ptr, i64, i32, i32, ptr, i32, %struct.AVRational, %struct.AVRational, %struct.AVRational, i32, i32, i32, i32, i32, %struct.AVRational, i32, i32, i32, i32, i32, i32, i32, i32, i32, i32, i32, ptr, ptr, i32, float, float, float, float, float, float, float, float, float, i32, i32, i32, i32, i32, i32, i32, i32, i32, i32, i32, i32, ptr, ptr, ptr, i32, i32, i32, i32, i32, i32, i32, i32, i32, i32, %struct.AVChannelLayout, i32, i32, i32, i32, i32, i32, i32, i32, ptr, i32, i32, i32, float, float, i32, i32, i32, i32, i32, ptr, i64, i64, float, float, i32, i32, ptr, ptr, i32, i32, i32, i32, i32, ptr, ptr, ptr, ptr, i32, i32, [8 x i64], i32, i32, i32, i32, i32, i32, i32, ptr, ptr, i32, i32, i32, i32, i32, i32, i32, i32, i32, i32, ptr, ptr, i32, i32, ptr, ptr, ptr, ptr, i32, i32, i64, i32, i32, i64, ptr, i64, ptr, i32, ptr, i32 }
%struct.AVRational = type { i32, i32 }
%struct.AVChannelLayout = type { i32, i32, %union.anon.0, ptr }
%union.anon.0 = type { i64 }
%struct.TSCC2Context = type { ptr, ptr, i32, i32, ptr, [2 x i32], [2 x [3 x i32]], %struct.GetBitContext, [16 x i32] }
%struct.GetBitContext = type { ptr, ptr, i32, i32, i32 }

@tscc2_decode_init.init_static_once = internal global i32 0, align 4
@.str.2 = private unnamed_addr constant [35 x i8] c"Cannot allocate slice information\0A\00", align 1

; Function Attrs: cold nounwind optsize uwtable
define internal i32 @tscc2_decode_init(ptr noundef %0) #0 {
  %2 = alloca i32, align 4
  %3 = alloca ptr, align 8
  %4 = alloca ptr, align 8
  %5 = alloca i32, align 4
  store ptr %0, ptr %3, align 8, !tbaa !4
  call void @llvm.lifetime.start.p0(i64 8, ptr %4) #9
  %6 = load ptr, ptr %3, align 8, !tbaa !4
  %7 = getelementptr inbounds nuw %struct.AVCodecContext, ptr %6, i32 0, i32 6
  %8 = load ptr, ptr %7, align 8, !tbaa !9
  store ptr %8, ptr %4, align 8, !tbaa !29
  %9 = load ptr, ptr %3, align 8, !tbaa !4
  %10 = load ptr, ptr %4, align 8, !tbaa !29
  %11 = getelementptr inbounds nuw %struct.TSCC2Context, ptr %10, i32 0, i32 0
  store ptr %9, ptr %11, align 8, !tbaa !31
  %12 = load ptr, ptr %3, align 8, !tbaa !4
  %13 = getelementptr inbounds nuw %struct.AVCodecContext, ptr %12, i32 0, i32 23
  store i32 5, ptr %13, align 8, !tbaa !35
  %14 = load ptr, ptr %3, align 8, !tbaa !4
  %15 = getelementptr inbounds nuw %struct.AVCodecContext, ptr %14, i32 0, i32 18
  %16 = load i32, ptr %15, align 8, !tbaa !36
  %17 = add nsw i32 %16, 16
  %18 = sub nsw i32 %17, 1
  %19 = and i32 %18, -16
  %20 = ashr i32 %19, 4
  %21 = load ptr, ptr %4, align 8, !tbaa !29
  %22 = getelementptr inbounds nuw %struct.TSCC2Context, ptr %21, i32 0, i32 2
  store i32 %20, ptr %22, align 8, !tbaa !37
  %23 = load ptr, ptr %3, align 8, !tbaa !4
  %24 = getelementptr inbounds nuw %struct.AVCodecContext, ptr %23, i32 0, i32 19
  %25 = load i32, ptr %24, align 4, !tbaa !38
  %26 = add nsw i32 %25, 8
  %27 = sub nsw i32 %26, 1
  %28 = and i32 %27, -8
  %29 = ashr i32 %28, 3
  %30 = load ptr, ptr %4, align 8, !tbaa !29
  %31 = getelementptr inbounds nuw %struct.TSCC2Context, ptr %30, i32 0, i32 3
  store i32 %29, ptr %31, align 4, !tbaa !39
  %32 = load ptr, ptr %4, align 8, !tbaa !29
  %33 = getelementptr inbounds nuw %struct.TSCC2Context, ptr %32, i32 0, i32 2
  %34 = load i32, ptr %33, align 8, !tbaa !37
  %35 = load ptr, ptr %4, align 8, !tbaa !29
  %36 = getelementptr inbounds nuw %struct.TSCC2Context, ptr %35, i32 0, i32 3
  %37 = load i32, ptr %36, align 4, !tbaa !39
  %38 = mul nsw i32 %34, %37
  %39 = sext i32 %38 to i64
  %40 = call noalias ptr @av_malloc(i64 noundef %39)
  %41 = load ptr, ptr %4, align 8, !tbaa !29
  %42 = getelementptr inbounds nuw %struct.TSCC2Context, ptr %41, i32 0, i32 4
  store ptr %40, ptr %42, align 8, !tbaa !40
  %43 = load ptr, ptr %4, align 8, !tbaa !29
  %44 = getelementptr inbounds nuw %struct.TSCC2Context, ptr %43, i32 0, i32 4
  %45 = load ptr, ptr %44, align 8, !tbaa !40
  %46 = icmp ne ptr %45, null
  br i1 %46, label %49, label %47

47:                                               ; preds = %1
  %48 = load ptr, ptr %3, align 8, !tbaa !4
  call void (ptr, i32, ptr, ...) @av_log(ptr noundef %48, i32 noundef 16, ptr noundef @.str.2)
  store i32 -12, ptr %2, align 4
  store i32 1, ptr %5, align 4
  br label %60

49:                                               ; preds = %1
  %50 = call ptr @av_frame_alloc()
  %51 = load ptr, ptr %4, align 8, !tbaa !29
  %52 = getelementptr inbounds nuw %struct.TSCC2Context, ptr %51, i32 0, i32 1
  store ptr %50, ptr %52, align 8, !tbaa !41
  %53 = load ptr, ptr %4, align 8, !tbaa !29
  %54 = getelementptr inbounds nuw %struct.TSCC2Context, ptr %53, i32 0, i32 1
  %55 = load ptr, ptr %54, align 8, !tbaa !41
  %56 = icmp ne ptr %55, null
  br i1 %56, label %58, label %57

57:                                               ; preds = %49
  store i32 -12, ptr %2, align 4
  store i32 1, ptr %5, align 4
  br label %60

58:                                               ; preds = %49
  %59 = call i32 @pthread_once(ptr noundef @tscc2_decode_init.init_static_once, ptr noundef @tscc2_init_vlcs)
  store i32 0, ptr %2, align 4
  store i32 1, ptr %5, align 4
  br label %60

60:                                               ; preds = %58, %57, %47
  call void @llvm.lifetime.end.p0(i64 8, ptr %4) #9
  %61 = load i32, ptr %2, align 4
  ret i32 %61
}