; Function Attrs: cold nounwind optsize uwtable
define internal range(i32 -12, 1) i32 @tscc2_decode_init(ptr noundef %0) #0 {
  %2 = getelementptr inbounds nuw i8, ptr %0, i64 32
  %3 = load ptr, ptr %2, align 8, !tbaa !4
  store ptr %0, ptr %3, align 8, !tbaa !27
  %4 = getelementptr inbounds nuw i8, ptr %0, i64 136
  store i32 5, ptr %4, align 8, !tbaa !32
  %5 = getelementptr inbounds nuw i8, ptr %0, i64 112
  %6 = load i32, ptr %5, align 8, !tbaa !33
  %7 = add nsw i32 %6, 15
  %8 = ashr i32 %7, 4
  %9 = getelementptr inbounds nuw i8, ptr %3, i64 16
  store i32 %8, ptr %9, align 8, !tbaa !34
  %10 = getelementptr inbounds nuw i8, ptr %0, i64 116
  %11 = load i32, ptr %10, align 4, !tbaa !35
  %12 = add nsw i32 %11, 7
  %13 = ashr i32 %12, 3
  %14 = getelementptr inbounds nuw i8, ptr %3, i64 20
  store i32 %13, ptr %14, align 4, !tbaa !36
  %15 = mul nsw i32 %13, %8
  %16 = sext i32 %15 to i64
  %17 = tail call noalias ptr @av_malloc(i64 noundef %16) #7
  %18 = getelementptr inbounds nuw i8, ptr %3, i64 24
  store ptr %17, ptr %18, align 8, !tbaa !37
  %.not = icmp eq ptr %17, null
  br i1 %.not, label %19, label %20

19:                                               ; preds = %1
  tail call void (ptr, i32, ptr, ...) @av_log(ptr noundef nonnull %0, i32 noundef 16, ptr noundef nonnull @.str.2) #7
  br label %25

20:                                               ; preds = %1
  %21 = tail call ptr @av_frame_alloc() #7
  %22 = getelementptr inbounds nuw i8, ptr %3, i64 8
  store ptr %21, ptr %22, align 8, !tbaa !38
  %.not15 = icmp eq ptr %21, null
  br i1 %.not15, label %25, label %23

23:                                               ; preds = %20
  %24 = tail call i32 @pthread_once(ptr noundef nonnull @tscc2_decode_init.init_static_once, ptr noundef nonnull @tscc2_init_vlcs) #7
  br label %25

25:                                               ; preds = %20, %23, %19
  %.0 = phi i32 [ 0, %23 ], [ -12, %19 ], [ -12, %20 ]
  ret i32 %.0
}